target datalayout = "e-m:e-p270:32:32-p271:32:32-p272:64:64-i64:64-i128:128-f80:128-n8:16:32:64-S128"
target triple = "x86_64-pc-linux-gnu"

%struct.stbtt_pack_context = type { ptr, ptr, i32, i32, i32, i32, i32, i32, ptr, ptr }

; Function Attrs: mustprogress nounwind uwtable
define dso_local void @_Z9imguifreePvS_(ptr noundef %0, ptr noundef %1) #1 {
  %3 = alloca ptr, align 8
  %4 = alloca ptr, align 8
  store ptr %0, ptr %3, align 8
  store ptr %1, ptr %4, align 8
  %5 = load ptr, ptr %3, align 8
  call void @free(ptr noundef %5) #10
  ret void
}

; Function Attrs: mustprogress uwtable
define dso_local void @stbtt_PackEnd(ptr noundef %0) #0 {
  %2 = alloca ptr, align 8
  store ptr %0, ptr %2, align 8
  %3 = load ptr, ptr %2, align 8
  %4 = getelementptr inbounds %struct.stbtt_pack_context, ptr %3, i32 0, i32 9
  %5 = load ptr, ptr %4, align 8
  %6 = load ptr, ptr %2, align 8
  %7 = getelementptr inbounds %struct.stbtt_pack_context, ptr %6, i32 0, i32 0
  %8 = load ptr, ptr %7, align 8
  call void @_Z9imguifreePvS_(ptr noundef %5, ptr noundef %8)
  %9 = load ptr, ptr %2, align 8
  %10 = getelementptr inbounds %struct.stbtt_pack_context, ptr %9, i32 0, i32 1
  %11 = load ptr, ptr %10, align 8
  %12 = load ptr, ptr %2, align 8
  %13 = getelementptr inbounds %struct.stbtt_pack_context, ptr %12, i32 0, i32 0
  %14 = load ptr, ptr %13, align 8
  call void @_Z9imguifreePvS_(ptr noundef %11, ptr noundef %14)
  ret void
}