; Function Attrs: mustprogress nounwind willreturn uwtable
define dso_local void @stbtt_PackEnd(ptr noundef readonly captures(none) %0) local_unnamed_addr #12 {
  %2 = getelementptr inbounds nuw i8, ptr %0, i64 48
  %3 = load ptr, ptr %2, align 8
  tail call void @free(ptr noundef %3) #28
  %4 = getelementptr inbounds nuw i8, ptr %0, i64 8
  %5 = load ptr, ptr %4, align 8
  tail call void @free(ptr noundef %5) #28
  ret void
}